
ARM.axf:     file format elf32-littlearm


Disassembly of section .isr_vector:

08000000 <g_pfnVectors>:
 8000000:	20005000 	andcs	r5, r0, r0
 8000004:	080004ed 	stmdaeq	r0, {r0, r2, r3, r5, r6, r7, sl}
 8000008:	0800053d 	stmdaeq	r0, {r0, r2, r3, r4, r5, r8, sl}
 800000c:	0800053d 	stmdaeq	r0, {r0, r2, r3, r4, r5, r8, sl}
 8000010:	0800053d 	stmdaeq	r0, {r0, r2, r3, r4, r5, r8, sl}
 8000014:	0800053d 	stmdaeq	r0, {r0, r2, r3, r4, r5, r8, sl}
 8000018:	0800053d 	stmdaeq	r0, {r0, r2, r3, r4, r5, r8, sl}
	...
 800002c:	0800045d 	stmdaeq	r0, {r0, r2, r3, r4, r6, sl}
 8000030:	0800053d 	stmdaeq	r0, {r0, r2, r3, r4, r5, r8, sl}
 8000034:	00000000 	andeq	r0, r0, r0
 8000038:	0800053d 	stmdaeq	r0, {r0, r2, r3, r4, r5, r8, sl}
 800003c:	0800053d 	stmdaeq	r0, {r0, r2, r3, r4, r5, r8, sl}
 8000040:	0800053d 	stmdaeq	r0, {r0, r2, r3, r4, r5, r8, sl}
 8000044:	0800053d 	stmdaeq	r0, {r0, r2, r3, r4, r5, r8, sl}
 8000048:	0800053d 	stmdaeq	r0, {r0, r2, r3, r4, r5, r8, sl}
 800004c:	0800053d 	stmdaeq	r0, {r0, r2, r3, r4, r5, r8, sl}
 8000050:	0800053d 	stmdaeq	r0, {r0, r2, r3, r4, r5, r8, sl}
 8000054:	0800053d 	stmdaeq	r0, {r0, r2, r3, r4, r5, r8, sl}
 8000058:	08000171 	stmdaeq	r0, {r0, r4, r5, r6, r8}
 800005c:	08000195 	stmdaeq	r0, {r0, r2, r4, r7, r8}
 8000060:	080001b9 	stmdaeq	r0, {r0, r3, r4, r5, r7, r8}
 8000064:	080001dd 	stmdaeq	r0, {r0, r2, r3, r4, r6, r7, r8}
 8000068:	08000201 	stmdaeq	r0, {r0, r9}
 800006c:	0800053d 	stmdaeq	r0, {r0, r2, r3, r4, r5, r8, sl}
 8000070:	0800053d 	stmdaeq	r0, {r0, r2, r3, r4, r5, r8, sl}
 8000074:	0800053d 	stmdaeq	r0, {r0, r2, r3, r4, r5, r8, sl}
 8000078:	0800053d 	stmdaeq	r0, {r0, r2, r3, r4, r5, r8, sl}
 800007c:	0800053d 	stmdaeq	r0, {r0, r2, r3, r4, r5, r8, sl}
 8000080:	0800053d 	stmdaeq	r0, {r0, r2, r3, r4, r5, r8, sl}
 8000084:	0800053d 	stmdaeq	r0, {r0, r2, r3, r4, r5, r8, sl}
 8000088:	0800053d 	stmdaeq	r0, {r0, r2, r3, r4, r5, r8, sl}
 800008c:	0800053d 	stmdaeq	r0, {r0, r2, r3, r4, r5, r8, sl}
 8000090:	0800053d 	stmdaeq	r0, {r0, r2, r3, r4, r5, r8, sl}
 8000094:	0800053d 	stmdaeq	r0, {r0, r2, r3, r4, r5, r8, sl}
 8000098:	0800053d 	stmdaeq	r0, {r0, r2, r3, r4, r5, r8, sl}
 800009c:	08000225 	stmdaeq	r0, {r0, r2, r5, r9}
 80000a0:	0800053d 	stmdaeq	r0, {r0, r2, r3, r4, r5, r8, sl}
 80000a4:	0800053d 	stmdaeq	r0, {r0, r2, r3, r4, r5, r8, sl}
 80000a8:	0800053d 	stmdaeq	r0, {r0, r2, r3, r4, r5, r8, sl}
 80000ac:	0800053d 	stmdaeq	r0, {r0, r2, r3, r4, r5, r8, sl}
 80000b0:	0800053d 	stmdaeq	r0, {r0, r2, r3, r4, r5, r8, sl}
 80000b4:	0800053d 	stmdaeq	r0, {r0, r2, r3, r4, r5, r8, sl}
 80000b8:	0800053d 	stmdaeq	r0, {r0, r2, r3, r4, r5, r8, sl}
 80000bc:	0800053d 	stmdaeq	r0, {r0, r2, r3, r4, r5, r8, sl}
 80000c0:	0800053d 	stmdaeq	r0, {r0, r2, r3, r4, r5, r8, sl}
 80000c4:	0800053d 	stmdaeq	r0, {r0, r2, r3, r4, r5, r8, sl}
 80000c8:	0800053d 	stmdaeq	r0, {r0, r2, r3, r4, r5, r8, sl}
 80000cc:	08000391 	stmdaeq	r0, {r0, r4, r7, r8, r9}
 80000d0:	080003a5 	stmdaeq	r0, {r0, r2, r5, r7, r8, r9}
 80000d4:	080003b9 	stmdaeq	r0, {r0, r3, r4, r5, r7, r8, r9}
 80000d8:	080003cd 	stmdaeq	r0, {r0, r2, r3, r6, r7, r8, r9}
 80000dc:	080003e1 	stmdaeq	r0, {r0, r5, r6, r7, r8, r9}
 80000e0:	080002cd 	stmdaeq	r0, {r0, r2, r3, r6, r7, r9}
 80000e4:	0800053d 	stmdaeq	r0, {r0, r2, r3, r4, r5, r8, sl}
 80000e8:	00000000 	andeq	r0, r0, r0
 80000ec:	0800053d 	stmdaeq	r0, {r0, r2, r3, r4, r5, r8, sl}
 80000f0:	0800053d 	stmdaeq	r0, {r0, r2, r3, r4, r5, r8, sl}
 80000f4:	0800053d 	stmdaeq	r0, {r0, r2, r3, r4, r5, r8, sl}
 80000f8:	0800053d 	stmdaeq	r0, {r0, r2, r3, r4, r5, r8, sl}
 80000fc:	0800053d 	stmdaeq	r0, {r0, r2, r3, r4, r5, r8, sl}
 8000100:	0800053d 	stmdaeq	r0, {r0, r2, r3, r4, r5, r8, sl}
 8000104:	0800053d 	stmdaeq	r0, {r0, r2, r3, r4, r5, r8, sl}
 8000108:	0800053d 	stmdaeq	r0, {r0, r2, r3, r4, r5, r8, sl}
 800010c:	0800053d 	stmdaeq	r0, {r0, r2, r3, r4, r5, r8, sl}
 8000110:	0800053d 	stmdaeq	r0, {r0, r2, r3, r4, r5, r8, sl}
 8000114:	0800053d 	stmdaeq	r0, {r0, r2, r3, r4, r5, r8, sl}
 8000118:	0800053d 	stmdaeq	r0, {r0, r2, r3, r4, r5, r8, sl}
 800011c:	0800053d 	stmdaeq	r0, {r0, r2, r3, r4, r5, r8, sl}
 8000120:	0800053d 	stmdaeq	r0, {r0, r2, r3, r4, r5, r8, sl}
 8000124:	0800053d 	stmdaeq	r0, {r0, r2, r3, r4, r5, r8, sl}
 8000128:	0800053d 	stmdaeq	r0, {r0, r2, r3, r4, r5, r8, sl}
 800012c:	0800053d 	stmdaeq	r0, {r0, r2, r3, r4, r5, r8, sl}

Disassembly of section .text:

08000130 <__do_global_dtors_aux>:
 8000130:	b510      	push	{r4, lr}
 8000132:	4c05      	ldr	r4, [pc, #20]	; (8000148 <__do_global_dtors_aux+0x18>)
 8000134:	7823      	ldrb	r3, [r4, #0]
 8000136:	b933      	cbnz	r3, 8000146 <__do_global_dtors_aux+0x16>
 8000138:	4b04      	ldr	r3, [pc, #16]	; (800014c <__do_global_dtors_aux+0x1c>)
 800013a:	b113      	cbz	r3, 8000142 <__do_global_dtors_aux+0x12>
 800013c:	4804      	ldr	r0, [pc, #16]	; (8000150 <__do_global_dtors_aux+0x20>)
 800013e:	f3af 8000 	nop.w
 8000142:	2301      	movs	r3, #1
 8000144:	7023      	strb	r3, [r4, #0]
 8000146:	bd10      	pop	{r4, pc}
 8000148:	20000000 	andcs	r0, r0, r0
 800014c:	00000000 	andeq	r0, r0, r0
 8000150:	08000588 	stmdaeq	r0, {r3, r7, r8, sl}

08000154 <frame_dummy>:
 8000154:	b508      	push	{r3, lr}
 8000156:	4b03      	ldr	r3, [pc, #12]	; (8000164 <frame_dummy+0x10>)
 8000158:	b11b      	cbz	r3, 8000162 <frame_dummy+0xe>
 800015a:	4903      	ldr	r1, [pc, #12]	; (8000168 <frame_dummy+0x14>)
 800015c:	4803      	ldr	r0, [pc, #12]	; (800016c <frame_dummy+0x18>)
 800015e:	f3af 8000 	nop.w
 8000162:	bd08      	pop	{r3, pc}
 8000164:	00000000 	andeq	r0, r0, r0
 8000168:	20000004 	andcs	r0, r0, r4
 800016c:	08000588 	stmdaeq	r0, {r3, r7, r8, sl}

08000170 <EXTI0_IRQHandler>:
 8000170:	b580      	push	{r7, lr}
 8000172:	af00      	add	r7, sp, #0
 8000174:	4b05      	ldr	r3, [pc, #20]	; (800018c <EXTI0_IRQHandler+0x1c>)
 8000176:	695b      	ldr	r3, [r3, #20]
 8000178:	4a04      	ldr	r2, [pc, #16]	; (800018c <EXTI0_IRQHandler+0x1c>)
 800017a:	f043 0301 	orr.w	r3, r3, #1
 800017e:	6153      	str	r3, [r2, #20]
 8000180:	4b03      	ldr	r3, [pc, #12]	; (8000190 <EXTI0_IRQHandler+0x20>)
 8000182:	681b      	ldr	r3, [r3, #0]
 8000184:	4798      	blx	r3
 8000186:	bf00      	nop
 8000188:	bd80      	pop	{r7, pc}
 800018a:	bf00      	nop
 800018c:	40010400 	andmi	r0, r1, r0, lsl #8
 8000190:	20000020 	andcs	r0, r0, r0, lsr #32

08000194 <EXTI1_IRQHandler>:
 8000194:	b580      	push	{r7, lr}
 8000196:	af00      	add	r7, sp, #0
 8000198:	4b05      	ldr	r3, [pc, #20]	; (80001b0 <EXTI1_IRQHandler+0x1c>)
 800019a:	695b      	ldr	r3, [r3, #20]
 800019c:	4a04      	ldr	r2, [pc, #16]	; (80001b0 <EXTI1_IRQHandler+0x1c>)
 800019e:	f043 0302 	orr.w	r3, r3, #2
 80001a2:	6153      	str	r3, [r2, #20]
 80001a4:	4b03      	ldr	r3, [pc, #12]	; (80001b4 <EXTI1_IRQHandler+0x20>)
 80001a6:	685b      	ldr	r3, [r3, #4]
 80001a8:	4798      	blx	r3
 80001aa:	bf00      	nop
 80001ac:	bd80      	pop	{r7, pc}
 80001ae:	bf00      	nop
 80001b0:	40010400 	andmi	r0, r1, r0, lsl #8
 80001b4:	20000020 	andcs	r0, r0, r0, lsr #32

080001b8 <EXTI2_IRQHandler>:
 80001b8:	b580      	push	{r7, lr}
 80001ba:	af00      	add	r7, sp, #0
 80001bc:	4b05      	ldr	r3, [pc, #20]	; (80001d4 <EXTI2_IRQHandler+0x1c>)
 80001be:	695b      	ldr	r3, [r3, #20]
 80001c0:	4a04      	ldr	r2, [pc, #16]	; (80001d4 <EXTI2_IRQHandler+0x1c>)
 80001c2:	f043 0304 	orr.w	r3, r3, #4
 80001c6:	6153      	str	r3, [r2, #20]
 80001c8:	4b03      	ldr	r3, [pc, #12]	; (80001d8 <EXTI2_IRQHandler+0x20>)
 80001ca:	689b      	ldr	r3, [r3, #8]
 80001cc:	4798      	blx	r3
 80001ce:	bf00      	nop
 80001d0:	bd80      	pop	{r7, pc}
 80001d2:	bf00      	nop
 80001d4:	40010400 	andmi	r0, r1, r0, lsl #8
 80001d8:	20000020 	andcs	r0, r0, r0, lsr #32

080001dc <EXTI3_IRQHandler>:
 80001dc:	b580      	push	{r7, lr}
 80001de:	af00      	add	r7, sp, #0
 80001e0:	4b05      	ldr	r3, [pc, #20]	; (80001f8 <EXTI3_IRQHandler+0x1c>)
 80001e2:	695b      	ldr	r3, [r3, #20]
 80001e4:	4a04      	ldr	r2, [pc, #16]	; (80001f8 <EXTI3_IRQHandler+0x1c>)
 80001e6:	f043 0308 	orr.w	r3, r3, #8
 80001ea:	6153      	str	r3, [r2, #20]
 80001ec:	4b03      	ldr	r3, [pc, #12]	; (80001fc <EXTI3_IRQHandler+0x20>)
 80001ee:	68db      	ldr	r3, [r3, #12]
 80001f0:	4798      	blx	r3
 80001f2:	bf00      	nop
 80001f4:	bd80      	pop	{r7, pc}
 80001f6:	bf00      	nop
 80001f8:	40010400 	andmi	r0, r1, r0, lsl #8
 80001fc:	20000020 	andcs	r0, r0, r0, lsr #32

08000200 <EXTI4_IRQHandler>:
 8000200:	b580      	push	{r7, lr}
 8000202:	af00      	add	r7, sp, #0
 8000204:	4b05      	ldr	r3, [pc, #20]	; (800021c <EXTI4_IRQHandler+0x1c>)
 8000206:	695b      	ldr	r3, [r3, #20]
 8000208:	4a04      	ldr	r2, [pc, #16]	; (800021c <EXTI4_IRQHandler+0x1c>)
 800020a:	f043 0310 	orr.w	r3, r3, #16
 800020e:	6153      	str	r3, [r2, #20]
 8000210:	4b03      	ldr	r3, [pc, #12]	; (8000220 <EXTI4_IRQHandler+0x20>)
 8000212:	691b      	ldr	r3, [r3, #16]
 8000214:	4798      	blx	r3
 8000216:	bf00      	nop
 8000218:	bd80      	pop	{r7, pc}
 800021a:	bf00      	nop
 800021c:	40010400 	andmi	r0, r1, r0, lsl #8
 8000220:	20000020 	andcs	r0, r0, r0, lsr #32

08000224 <EXTI9_5_IRQHandler>:
 8000224:	b580      	push	{r7, lr}
 8000226:	af00      	add	r7, sp, #0
 8000228:	4b26      	ldr	r3, [pc, #152]	; (80002c4 <EXTI9_5_IRQHandler+0xa0>)
 800022a:	695b      	ldr	r3, [r3, #20]
 800022c:	f003 0320 	and.w	r3, r3, #32
 8000230:	2b00      	cmp	r3, #0
 8000232:	d008      	beq.n	8000246 <EXTI9_5_IRQHandler+0x22>
 8000234:	4b23      	ldr	r3, [pc, #140]	; (80002c4 <EXTI9_5_IRQHandler+0xa0>)
 8000236:	695b      	ldr	r3, [r3, #20]
 8000238:	4a22      	ldr	r2, [pc, #136]	; (80002c4 <EXTI9_5_IRQHandler+0xa0>)
 800023a:	f043 0320 	orr.w	r3, r3, #32
 800023e:	6153      	str	r3, [r2, #20]
 8000240:	4b21      	ldr	r3, [pc, #132]	; (80002c8 <EXTI9_5_IRQHandler+0xa4>)
 8000242:	695b      	ldr	r3, [r3, #20]
 8000244:	4798      	blx	r3
 8000246:	4b1f      	ldr	r3, [pc, #124]	; (80002c4 <EXTI9_5_IRQHandler+0xa0>)
 8000248:	695b      	ldr	r3, [r3, #20]
 800024a:	f003 0340 	and.w	r3, r3, #64	; 0x40
 800024e:	2b00      	cmp	r3, #0
 8000250:	d008      	beq.n	8000264 <EXTI9_5_IRQHandler+0x40>
 8000252:	4b1c      	ldr	r3, [pc, #112]	; (80002c4 <EXTI9_5_IRQHandler+0xa0>)
 8000254:	695b      	ldr	r3, [r3, #20]
 8000256:	4a1b      	ldr	r2, [pc, #108]	; (80002c4 <EXTI9_5_IRQHandler+0xa0>)
 8000258:	f043 0340 	orr.w	r3, r3, #64	; 0x40
 800025c:	6153      	str	r3, [r2, #20]
 800025e:	4b1a      	ldr	r3, [pc, #104]	; (80002c8 <EXTI9_5_IRQHandler+0xa4>)
 8000260:	699b      	ldr	r3, [r3, #24]
 8000262:	4798      	blx	r3
 8000264:	4b17      	ldr	r3, [pc, #92]	; (80002c4 <EXTI9_5_IRQHandler+0xa0>)
 8000266:	695b      	ldr	r3, [r3, #20]
 8000268:	f003 0380 	and.w	r3, r3, #128	; 0x80
 800026c:	2b00      	cmp	r3, #0
 800026e:	d008      	beq.n	8000282 <EXTI9_5_IRQHandler+0x5e>
 8000270:	4b14      	ldr	r3, [pc, #80]	; (80002c4 <EXTI9_5_IRQHandler+0xa0>)
 8000272:	695b      	ldr	r3, [r3, #20]
 8000274:	4a13      	ldr	r2, [pc, #76]	; (80002c4 <EXTI9_5_IRQHandler+0xa0>)
 8000276:	f043 0380 	orr.w	r3, r3, #128	; 0x80
 800027a:	6153      	str	r3, [r2, #20]
 800027c:	4b12      	ldr	r3, [pc, #72]	; (80002c8 <EXTI9_5_IRQHandler+0xa4>)
 800027e:	69db      	ldr	r3, [r3, #28]
 8000280:	4798      	blx	r3
 8000282:	4b10      	ldr	r3, [pc, #64]	; (80002c4 <EXTI9_5_IRQHandler+0xa0>)
 8000284:	695b      	ldr	r3, [r3, #20]
 8000286:	f403 7380 	and.w	r3, r3, #256	; 0x100
 800028a:	2b00      	cmp	r3, #0
 800028c:	d008      	beq.n	80002a0 <EXTI9_5_IRQHandler+0x7c>
 800028e:	4b0d      	ldr	r3, [pc, #52]	; (80002c4 <EXTI9_5_IRQHandler+0xa0>)
 8000290:	695b      	ldr	r3, [r3, #20]
 8000292:	4a0c      	ldr	r2, [pc, #48]	; (80002c4 <EXTI9_5_IRQHandler+0xa0>)
 8000294:	f443 7380 	orr.w	r3, r3, #256	; 0x100
 8000298:	6153      	str	r3, [r2, #20]
 800029a:	4b0b      	ldr	r3, [pc, #44]	; (80002c8 <EXTI9_5_IRQHandler+0xa4>)
 800029c:	6a1b      	ldr	r3, [r3, #32]
 800029e:	4798      	blx	r3
 80002a0:	4b08      	ldr	r3, [pc, #32]	; (80002c4 <EXTI9_5_IRQHandler+0xa0>)
 80002a2:	695b      	ldr	r3, [r3, #20]
 80002a4:	f403 7300 	and.w	r3, r3, #512	; 0x200
 80002a8:	2b00      	cmp	r3, #0
 80002aa:	d008      	beq.n	80002be <EXTI9_5_IRQHandler+0x9a>
 80002ac:	4b05      	ldr	r3, [pc, #20]	; (80002c4 <EXTI9_5_IRQHandler+0xa0>)
 80002ae:	695b      	ldr	r3, [r3, #20]
 80002b0:	4a04      	ldr	r2, [pc, #16]	; (80002c4 <EXTI9_5_IRQHandler+0xa0>)
 80002b2:	f443 7300 	orr.w	r3, r3, #512	; 0x200
 80002b6:	6153      	str	r3, [r2, #20]
 80002b8:	4b03      	ldr	r3, [pc, #12]	; (80002c8 <EXTI9_5_IRQHandler+0xa4>)
 80002ba:	6a5b      	ldr	r3, [r3, #36]	; 0x24
 80002bc:	4798      	blx	r3
 80002be:	bf00      	nop
 80002c0:	bd80      	pop	{r7, pc}
 80002c2:	bf00      	nop
 80002c4:	40010400 	andmi	r0, r1, r0, lsl #8
 80002c8:	20000020 	andcs	r0, r0, r0, lsr #32

080002cc <EXTI15_10_IRQHandler>:
 80002cc:	b580      	push	{r7, lr}
 80002ce:	af00      	add	r7, sp, #0
 80002d0:	4b2d      	ldr	r3, [pc, #180]	; (8000388 <EXTI15_10_IRQHandler+0xbc>)
 80002d2:	695b      	ldr	r3, [r3, #20]
 80002d4:	f403 6380 	and.w	r3, r3, #1024	; 0x400
 80002d8:	2b00      	cmp	r3, #0
 80002da:	d008      	beq.n	80002ee <EXTI15_10_IRQHandler+0x22>
 80002dc:	4b2a      	ldr	r3, [pc, #168]	; (8000388 <EXTI15_10_IRQHandler+0xbc>)
 80002de:	695b      	ldr	r3, [r3, #20]
 80002e0:	4a29      	ldr	r2, [pc, #164]	; (8000388 <EXTI15_10_IRQHandler+0xbc>)
 80002e2:	f443 6380 	orr.w	r3, r3, #1024	; 0x400
 80002e6:	6153      	str	r3, [r2, #20]
 80002e8:	4b28      	ldr	r3, [pc, #160]	; (800038c <EXTI15_10_IRQHandler+0xc0>)
 80002ea:	6a9b      	ldr	r3, [r3, #40]	; 0x28
 80002ec:	4798      	blx	r3
 80002ee:	4b26      	ldr	r3, [pc, #152]	; (8000388 <EXTI15_10_IRQHandler+0xbc>)
 80002f0:	695b      	ldr	r3, [r3, #20]
 80002f2:	f403 6300 	and.w	r3, r3, #2048	; 0x800
 80002f6:	2b00      	cmp	r3, #0
 80002f8:	d008      	beq.n	800030c <EXTI15_10_IRQHandler+0x40>
 80002fa:	4b23      	ldr	r3, [pc, #140]	; (8000388 <EXTI15_10_IRQHandler+0xbc>)
 80002fc:	695b      	ldr	r3, [r3, #20]
 80002fe:	4a22      	ldr	r2, [pc, #136]	; (8000388 <EXTI15_10_IRQHandler+0xbc>)
 8000300:	f443 6300 	orr.w	r3, r3, #2048	; 0x800
 8000304:	6153      	str	r3, [r2, #20]
 8000306:	4b21      	ldr	r3, [pc, #132]	; (800038c <EXTI15_10_IRQHandler+0xc0>)
 8000308:	6adb      	ldr	r3, [r3, #44]	; 0x2c
 800030a:	4798      	blx	r3
 800030c:	4b1e      	ldr	r3, [pc, #120]	; (8000388 <EXTI15_10_IRQHandler+0xbc>)
 800030e:	695b      	ldr	r3, [r3, #20]
 8000310:	f403 5380 	and.w	r3, r3, #4096	; 0x1000
 8000314:	2b00      	cmp	r3, #0
 8000316:	d008      	beq.n	800032a <EXTI15_10_IRQHandler+0x5e>
 8000318:	4b1b      	ldr	r3, [pc, #108]	; (8000388 <EXTI15_10_IRQHandler+0xbc>)
 800031a:	695b      	ldr	r3, [r3, #20]
 800031c:	4a1a      	ldr	r2, [pc, #104]	; (8000388 <EXTI15_10_IRQHandler+0xbc>)
 800031e:	f443 5380 	orr.w	r3, r3, #4096	; 0x1000
 8000322:	6153      	str	r3, [r2, #20]
 8000324:	4b19      	ldr	r3, [pc, #100]	; (800038c <EXTI15_10_IRQHandler+0xc0>)
 8000326:	6b1b      	ldr	r3, [r3, #48]	; 0x30
 8000328:	4798      	blx	r3
 800032a:	4b17      	ldr	r3, [pc, #92]	; (8000388 <EXTI15_10_IRQHandler+0xbc>)
 800032c:	695b      	ldr	r3, [r3, #20]
 800032e:	f403 5300 	and.w	r3, r3, #8192	; 0x2000
 8000332:	2b00      	cmp	r3, #0
 8000334:	d008      	beq.n	8000348 <EXTI15_10_IRQHandler+0x7c>
 8000336:	4b14      	ldr	r3, [pc, #80]	; (8000388 <EXTI15_10_IRQHandler+0xbc>)
 8000338:	695b      	ldr	r3, [r3, #20]
 800033a:	4a13      	ldr	r2, [pc, #76]	; (8000388 <EXTI15_10_IRQHandler+0xbc>)
 800033c:	f443 5300 	orr.w	r3, r3, #8192	; 0x2000
 8000340:	6153      	str	r3, [r2, #20]
 8000342:	4b12      	ldr	r3, [pc, #72]	; (800038c <EXTI15_10_IRQHandler+0xc0>)
 8000344:	6b5b      	ldr	r3, [r3, #52]	; 0x34
 8000346:	4798      	blx	r3
 8000348:	4b0f      	ldr	r3, [pc, #60]	; (8000388 <EXTI15_10_IRQHandler+0xbc>)
 800034a:	695b      	ldr	r3, [r3, #20]
 800034c:	f403 4380 	and.w	r3, r3, #16384	; 0x4000
 8000350:	2b00      	cmp	r3, #0
 8000352:	d008      	beq.n	8000366 <EXTI15_10_IRQHandler+0x9a>
 8000354:	4b0c      	ldr	r3, [pc, #48]	; (8000388 <EXTI15_10_IRQHandler+0xbc>)
 8000356:	695b      	ldr	r3, [r3, #20]
 8000358:	4a0b      	ldr	r2, [pc, #44]	; (8000388 <EXTI15_10_IRQHandler+0xbc>)
 800035a:	f443 4380 	orr.w	r3, r3, #16384	; 0x4000
 800035e:	6153      	str	r3, [r2, #20]
 8000360:	4b0a      	ldr	r3, [pc, #40]	; (800038c <EXTI15_10_IRQHandler+0xc0>)
 8000362:	6b9b      	ldr	r3, [r3, #56]	; 0x38
 8000364:	4798      	blx	r3
 8000366:	4b08      	ldr	r3, [pc, #32]	; (8000388 <EXTI15_10_IRQHandler+0xbc>)
 8000368:	695b      	ldr	r3, [r3, #20]
 800036a:	f403 4300 	and.w	r3, r3, #32768	; 0x8000
 800036e:	2b00      	cmp	r3, #0
 8000370:	d008      	beq.n	8000384 <EXTI15_10_IRQHandler+0xb8>
 8000372:	4b05      	ldr	r3, [pc, #20]	; (8000388 <EXTI15_10_IRQHandler+0xbc>)
 8000374:	695b      	ldr	r3, [r3, #20]
 8000376:	4a04      	ldr	r2, [pc, #16]	; (8000388 <EXTI15_10_IRQHandler+0xbc>)
 8000378:	f443 4300 	orr.w	r3, r3, #32768	; 0x8000
 800037c:	6153      	str	r3, [r2, #20]
 800037e:	4b03      	ldr	r3, [pc, #12]	; (800038c <EXTI15_10_IRQHandler+0xc0>)
 8000380:	6bdb      	ldr	r3, [r3, #60]	; 0x3c
 8000382:	4798      	blx	r3
 8000384:	bf00      	nop
 8000386:	bd80      	pop	{r7, pc}
 8000388:	40010400 	andmi	r0, r1, r0, lsl #8
 800038c:	20000020 	andcs	r0, r0, r0, lsr #32

08000390 <SPI1_IRQHandler>:
 8000390:	b580      	push	{r7, lr}
 8000392:	af00      	add	r7, sp, #0
 8000394:	4b02      	ldr	r3, [pc, #8]	; (80003a0 <SPI1_IRQHandler+0x10>)
 8000396:	681b      	ldr	r3, [r3, #0]
 8000398:	4798      	blx	r3
 800039a:	bf00      	nop
 800039c:	bd80      	pop	{r7, pc}
 800039e:	bf00      	nop
 80003a0:	20000060 	andcs	r0, r0, r0, rrx

080003a4 <SPI2_IRQHandler>:
 80003a4:	b580      	push	{r7, lr}
 80003a6:	af00      	add	r7, sp, #0
 80003a8:	4b02      	ldr	r3, [pc, #8]	; (80003b4 <SPI2_IRQHandler+0x10>)
 80003aa:	685b      	ldr	r3, [r3, #4]
 80003ac:	4798      	blx	r3
 80003ae:	bf00      	nop
 80003b0:	bd80      	pop	{r7, pc}
 80003b2:	bf00      	nop
 80003b4:	20000060 	andcs	r0, r0, r0, rrx

080003b8 <USART1_IRQHandler>:
 80003b8:	b580      	push	{r7, lr}
 80003ba:	af00      	add	r7, sp, #0
 80003bc:	4b02      	ldr	r3, [pc, #8]	; (80003c8 <USART1_IRQHandler+0x10>)
 80003be:	681b      	ldr	r3, [r3, #0]
 80003c0:	4798      	blx	r3
 80003c2:	bf00      	nop
 80003c4:	bd80      	pop	{r7, pc}
 80003c6:	bf00      	nop
 80003c8:	20000068 	andcs	r0, r0, r8, rrx

080003cc <USART2_IRQHandler>:
 80003cc:	b580      	push	{r7, lr}
 80003ce:	af00      	add	r7, sp, #0
 80003d0:	4b02      	ldr	r3, [pc, #8]	; (80003dc <USART2_IRQHandler+0x10>)
 80003d2:	685b      	ldr	r3, [r3, #4]
 80003d4:	4798      	blx	r3
 80003d6:	bf00      	nop
 80003d8:	bd80      	pop	{r7, pc}
 80003da:	bf00      	nop
 80003dc:	20000068 	andcs	r0, r0, r8, rrx

080003e0 <USART3_IRQHandler>:
 80003e0:	b580      	push	{r7, lr}
 80003e2:	af00      	add	r7, sp, #0
 80003e4:	4b02      	ldr	r3, [pc, #8]	; (80003f0 <USART3_IRQHandler+0x10>)
 80003e6:	689b      	ldr	r3, [r3, #8]
 80003e8:	4798      	blx	r3
 80003ea:	bf00      	nop
 80003ec:	bd80      	pop	{r7, pc}
 80003ee:	bf00      	nop
 80003f0:	20000068 	andcs	r0, r0, r8, rrx

080003f4 <OS_SVC_Services>:
 80003f4:	b480      	push	{r7}
 80003f6:	b087      	sub	sp, #28
 80003f8:	af00      	add	r7, sp, #0
 80003fa:	6078      	str	r0, [r7, #4]
 80003fc:	687b      	ldr	r3, [r7, #4]
 80003fe:	3318      	adds	r3, #24
 8000400:	681b      	ldr	r3, [r3, #0]
 8000402:	3b02      	subs	r3, #2
 8000404:	781b      	ldrb	r3, [r3, #0]
 8000406:	75fb      	strb	r3, [r7, #23]
 8000408:	687b      	ldr	r3, [r7, #4]
 800040a:	681b      	ldr	r3, [r3, #0]
 800040c:	613b      	str	r3, [r7, #16]
 800040e:	687b      	ldr	r3, [r7, #4]
 8000410:	3304      	adds	r3, #4
 8000412:	681b      	ldr	r3, [r3, #0]
 8000414:	60fb      	str	r3, [r7, #12]
 8000416:	7dfb      	ldrb	r3, [r7, #23]
 8000418:	2b02      	cmp	r3, #2
 800041a:	d00b      	beq.n	8000434 <OS_SVC_Services+0x40>
 800041c:	2b03      	cmp	r3, #3
 800041e:	d010      	beq.n	8000442 <OS_SVC_Services+0x4e>
 8000420:	2b01      	cmp	r3, #1
 8000422:	d000      	beq.n	8000426 <OS_SVC_Services+0x32>
 8000424:	e015      	b.n	8000452 <OS_SVC_Services+0x5e>
 8000426:	693a      	ldr	r2, [r7, #16]
 8000428:	68fb      	ldr	r3, [r7, #12]
 800042a:	4413      	add	r3, r2
 800042c:	461a      	mov	r2, r3
 800042e:	687b      	ldr	r3, [r7, #4]
 8000430:	601a      	str	r2, [r3, #0]
 8000432:	e00e      	b.n	8000452 <OS_SVC_Services+0x5e>
 8000434:	693a      	ldr	r2, [r7, #16]
 8000436:	68fb      	ldr	r3, [r7, #12]
 8000438:	1ad3      	subs	r3, r2, r3
 800043a:	461a      	mov	r2, r3
 800043c:	687b      	ldr	r3, [r7, #4]
 800043e:	601a      	str	r2, [r3, #0]
 8000440:	e007      	b.n	8000452 <OS_SVC_Services+0x5e>
 8000442:	693b      	ldr	r3, [r7, #16]
 8000444:	68fa      	ldr	r2, [r7, #12]
 8000446:	fb02 f303 	mul.w	r3, r2, r3
 800044a:	461a      	mov	r2, r3
 800044c:	687b      	ldr	r3, [r7, #4]
 800044e:	601a      	str	r2, [r3, #0]
 8000450:	bf00      	nop
 8000452:	bf00      	nop
 8000454:	371c      	adds	r7, #28
 8000456:	46bd      	mov	sp, r7
 8000458:	bc80      	pop	{r7}
 800045a:	4770      	bx	lr

0800045c <SVC_Handler>:
 800045c:	f01e 0f04 	tst.w	lr, #4
 8000460:	bf0c      	ite	eq
 8000462:	f3ef 8008 	mrseq	r0, MSP
 8000466:	f3ef 8009 	mrsne	r0, PSP
 800046a:	f7ff bfc3 	b.w	80003f4 <OS_SVC_Services>
 800046e:	bf00      	nop

08000470 <OS_SVC_Set>:
 8000470:	b480      	push	{r7}
 8000472:	b087      	sub	sp, #28
 8000474:	af00      	add	r7, sp, #0
 8000476:	60f8      	str	r0, [r7, #12]
 8000478:	60b9      	str	r1, [r7, #8]
 800047a:	607a      	str	r2, [r7, #4]
 800047c:	687b      	ldr	r3, [r7, #4]
 800047e:	2b02      	cmp	r3, #2
 8000480:	d005      	beq.n	800048e <OS_SVC_Set+0x1e>
 8000482:	2b03      	cmp	r3, #3
 8000484:	d005      	beq.n	8000492 <OS_SVC_Set+0x22>
 8000486:	2b01      	cmp	r3, #1
 8000488:	d105      	bne.n	8000496 <OS_SVC_Set+0x26>
 800048a:	df01      	svc	1
 800048c:	e003      	b.n	8000496 <OS_SVC_Set+0x26>
 800048e:	df02      	svc	2
 8000490:	e001      	b.n	8000496 <OS_SVC_Set+0x26>
 8000492:	df03      	svc	3
 8000494:	bf00      	nop
 8000496:	697b      	ldr	r3, [r7, #20]
 8000498:	4618      	mov	r0, r3
 800049a:	371c      	adds	r7, #28
 800049c:	46bd      	mov	sp, r7
 800049e:	bc80      	pop	{r7}
 80004a0:	4770      	bx	lr
	...

080004a4 <main>:
 80004a4:	b580      	push	{r7, lr}
 80004a6:	af00      	add	r7, sp, #0
 80004a8:	4b0f      	ldr	r3, [pc, #60]	; (80004e8 <main+0x44>)
 80004aa:	2201      	movs	r2, #1
 80004ac:	701a      	strb	r2, [r3, #0]
 80004ae:	2201      	movs	r2, #1
 80004b0:	2101      	movs	r1, #1
 80004b2:	2002      	movs	r0, #2
 80004b4:	f7ff ffdc 	bl	8000470 <OS_SVC_Set>
 80004b8:	4603      	mov	r3, r0
 80004ba:	b2da      	uxtb	r2, r3
 80004bc:	4b0a      	ldr	r3, [pc, #40]	; (80004e8 <main+0x44>)
 80004be:	701a      	strb	r2, [r3, #0]
 80004c0:	2202      	movs	r2, #2
 80004c2:	2101      	movs	r1, #1
 80004c4:	2002      	movs	r0, #2
 80004c6:	f7ff ffd3 	bl	8000470 <OS_SVC_Set>
 80004ca:	4603      	mov	r3, r0
 80004cc:	b2da      	uxtb	r2, r3
 80004ce:	4b06      	ldr	r3, [pc, #24]	; (80004e8 <main+0x44>)
 80004d0:	701a      	strb	r2, [r3, #0]
 80004d2:	2203      	movs	r2, #3
 80004d4:	2101      	movs	r1, #1
 80004d6:	2002      	movs	r0, #2
 80004d8:	f7ff ffca 	bl	8000470 <OS_SVC_Set>
 80004dc:	4603      	mov	r3, r0
 80004de:	b2da      	uxtb	r2, r3
 80004e0:	4b01      	ldr	r3, [pc, #4]	; (80004e8 <main+0x44>)
 80004e2:	701a      	strb	r2, [r3, #0]
 80004e4:	e7fe      	b.n	80004e4 <main+0x40>
 80004e6:	bf00      	nop
 80004e8:	2000001c 	andcs	r0, r0, ip, lsl r0

080004ec <Reset_Handler>:
 80004ec:	480d      	ldr	r0, [pc, #52]	; (8000524 <LoopForever+0x2>)
 80004ee:	4685      	mov	sp, r0
 80004f0:	f3af 8000 	nop.w
 80004f4:	480c      	ldr	r0, [pc, #48]	; (8000528 <LoopForever+0x6>)
 80004f6:	490d      	ldr	r1, [pc, #52]	; (800052c <LoopForever+0xa>)
 80004f8:	4a0d      	ldr	r2, [pc, #52]	; (8000530 <LoopForever+0xe>)
 80004fa:	2300      	movs	r3, #0
 80004fc:	e002      	b.n	8000504 <LoopCopyDataInit>

080004fe <CopyDataInit>:
 80004fe:	58d4      	ldr	r4, [r2, r3]
 8000500:	50c4      	str	r4, [r0, r3]
 8000502:	3304      	adds	r3, #4

08000504 <LoopCopyDataInit>:
 8000504:	18c4      	adds	r4, r0, r3
 8000506:	428c      	cmp	r4, r1
 8000508:	d3f9      	bcc.n	80004fe <CopyDataInit>
 800050a:	4a0a      	ldr	r2, [pc, #40]	; (8000534 <LoopForever+0x12>)
 800050c:	4c0a      	ldr	r4, [pc, #40]	; (8000538 <LoopForever+0x16>)
 800050e:	2300      	movs	r3, #0
 8000510:	e001      	b.n	8000516 <LoopFillZerobss>

08000512 <FillZerobss>:
 8000512:	6013      	str	r3, [r2, #0]
 8000514:	3204      	adds	r2, #4

08000516 <LoopFillZerobss>:
 8000516:	42a2      	cmp	r2, r4
 8000518:	d3fb      	bcc.n	8000512 <FillZerobss>
 800051a:	f000 f811 	bl	8000540 <__libc_init_array>
 800051e:	f7ff ffc1 	bl	80004a4 <main>

08000522 <LoopForever>:
 8000522:	e7fe      	b.n	8000522 <LoopForever>
 8000524:	20005000 	andcs	r5, r0, r0
 8000528:	20000000 	andcs	r0, r0, r0
 800052c:	20000000 	andcs	r0, r0, r0
 8000530:	080005a8 	stmdaeq	r0, {r3, r5, r7, r8, sl}
 8000534:	20000000 	andcs	r0, r0, r0
 8000538:	20000074 	andcs	r0, r0, r4, ror r0

0800053c <ADC1_2_IRQHandler>:
 800053c:	e7fe      	b.n	800053c <ADC1_2_IRQHandler>
	...

08000540 <__libc_init_array>:
 8000540:	b570      	push	{r4, r5, r6, lr}
 8000542:	2500      	movs	r5, #0
 8000544:	4e0c      	ldr	r6, [pc, #48]	; (8000578 <__libc_init_array+0x38>)
 8000546:	4c0d      	ldr	r4, [pc, #52]	; (800057c <__libc_init_array+0x3c>)
 8000548:	1ba4      	subs	r4, r4, r6
 800054a:	10a4      	asrs	r4, r4, #2
 800054c:	42a5      	cmp	r5, r4
 800054e:	d109      	bne.n	8000564 <__libc_init_array+0x24>
 8000550:	f000 f81a 	bl	8000588 <_init>
 8000554:	2500      	movs	r5, #0
 8000556:	4e0a      	ldr	r6, [pc, #40]	; (8000580 <__libc_init_array+0x40>)
 8000558:	4c0a      	ldr	r4, [pc, #40]	; (8000584 <__libc_init_array+0x44>)
 800055a:	1ba4      	subs	r4, r4, r6
 800055c:	10a4      	asrs	r4, r4, #2
 800055e:	42a5      	cmp	r5, r4
 8000560:	d105      	bne.n	800056e <__libc_init_array+0x2e>
 8000562:	bd70      	pop	{r4, r5, r6, pc}
 8000564:	f856 3025 	ldr.w	r3, [r6, r5, lsl #2]
 8000568:	4798      	blx	r3
 800056a:	3501      	adds	r5, #1
 800056c:	e7ee      	b.n	800054c <__libc_init_array+0xc>
 800056e:	f856 3025 	ldr.w	r3, [r6, r5, lsl #2]
 8000572:	4798      	blx	r3
 8000574:	3501      	adds	r5, #1
 8000576:	e7f2      	b.n	800055e <__libc_init_array+0x1e>
 8000578:	080005a0 	stmdaeq	r0, {r5, r7, r8, sl}
 800057c:	080005a0 	stmdaeq	r0, {r5, r7, r8, sl}
 8000580:	080005a0 	stmdaeq	r0, {r5, r7, r8, sl}
 8000584:	080005a4 	stmdaeq	r0, {r2, r5, r7, r8, sl}

08000588 <_init>:
 8000588:	b5f8      	push	{r3, r4, r5, r6, r7, lr}
 800058a:	bf00      	nop
 800058c:	bcf8      	pop	{r3, r4, r5, r6, r7}
 800058e:	bc08      	pop	{r3}
 8000590:	469e      	mov	lr, r3
 8000592:	4770      	bx	lr

08000594 <_fini>:
 8000594:	b5f8      	push	{r3, r4, r5, r6, r7, lr}
 8000596:	bf00      	nop
 8000598:	bcf8      	pop	{r3, r4, r5, r6, r7}
 800059a:	bc08      	pop	{r3}
 800059c:	469e      	mov	lr, r3
 800059e:	4770      	bx	lr
